; Function Attrs: null_pointer_is_valid sspstrong uwtable
define ptr @tvb_new_subset_length(ptr noundef %0, i32 noundef %1, i32 noundef %2) local_unnamed_addr #0 {
  %4 = alloca i32, align 4
  %5 = alloca i32, align 4
  call void @llvm.lifetime.start.p0(i64 4, ptr nonnull %4) #5
  call void @llvm.lifetime.start.p0(i64 4, ptr nonnull %5) #5
  %.not = icmp eq ptr %0, null
  br i1 %.not, label %10, label %6

6:                                                ; preds = %3
  %7 = getelementptr inbounds nuw i8, ptr %0, i64 16
  %8 = load i8, ptr %7, align 8, !range !6, !noundef !7
  %9 = trunc nuw i8 %8 to i1
  br i1 %9, label %11, label %10

10:                                               ; preds = %6, %3
  tail call void (ptr, ...) @proto_report_dissector_bug(ptr noundef nonnull @.str, ptr noundef nonnull @.str.1, i32 noundef 199, ptr noundef nonnull @.str.2) #6
  unreachable

11:                                               ; preds = %6
  %12 = icmp slt i32 %2, -1
  br i1 %12, label %13, label %14

13:                                               ; preds = %11
  tail call void @except_throw(i64 noundef 1, i64 noundef 3, ptr noundef null) #6
  unreachable

14:                                               ; preds = %11
  %15 = icmp eq i32 %2, -1
  br i1 %15, label %16, label %19

16:                                               ; preds = %14
  %17 = getelementptr inbounds nuw i8, ptr %0, i64 44
  %18 = load i32, ptr %17, align 4
  br label %19

19:                                               ; preds = %14, %16
  %.022 = phi i32 [ %18, %16 ], [ %2, %14 ]
  %20 = tail call i32 @tvb_captured_length_remaining(ptr noundef nonnull %0, i32 noundef %1)
  %21 = icmp slt i32 %20, 0
  br i1 %21, label %22, label %23

22:                                               ; preds = %19
  tail call void @except_throw(i64 noundef 1, i64 noundef 1, ptr noundef null) #6
  unreachable

23:                                               ; preds = %19
  %spec.select = tail call i32 @llvm.smin.i32(i32 %20, i32 %.022)
  call void @tvb_check_offset_length(ptr noundef nonnull %0, i32 noundef %1, i32 noundef %spec.select, ptr noundef nonnull %4, ptr noundef nonnull %5)
  %.pre = load i32, ptr %4, align 4
  br i1 %15, label %24, label %31

24:                                               ; preds = %23
  %25 = getelementptr inbounds nuw i8, ptr %0, i64 44
  %26 = load i32, ptr %25, align 4
  %27 = icmp ult i32 %26, %.pre
  br i1 %27, label %28, label %29

28:                                               ; preds = %24
  call void @except_throw(i64 noundef 1, i64 noundef 3, ptr noundef null) #6
  unreachable

29:                                               ; preds = %24
  %30 = sub i32 %.022, %.pre
  br label %31

31:                                               ; preds = %29, %23
  %.1 = phi i32 [ %30, %29 ], [ %.022, %23 ]
  %32 = load i32, ptr %5, align 4
  %33 = call ptr @tvb_new(ptr noundef nonnull @tvb_subset_ops)
  %34 = getelementptr inbounds nuw i8, ptr %33, i64 56
  %35 = getelementptr inbounds nuw i8, ptr %33, i64 64
  store i32 %.pre, ptr %35, align 8
  %36 = getelementptr inbounds nuw i8, ptr %33, i64 68
  store i32 %32, ptr %36, align 4
  store ptr %0, ptr %34, align 8
  %37 = getelementptr inbounds nuw i8, ptr %33, i64 40
  store i32 %32, ptr %37, align 8
  %38 = getelementptr inbounds nuw i8, ptr %0, i64 48
  %39 = load i32, ptr %38, align 8
  %40 = sub i32 %39, %.pre
  %..i = call i32 @llvm.umin.i32(i32 %.1, i32 %40)
  %41 = getelementptr inbounds nuw i8, ptr %33, i64 48
  store i32 %..i, ptr %41, align 8
  %42 = getelementptr inbounds nuw i8, ptr %0, i64 20
  %43 = load i32, ptr %42, align 4
  %44 = getelementptr inbounds nuw i8, ptr %33, i64 20
  store i32 %43, ptr %44, align 4
  %45 = getelementptr inbounds nuw i8, ptr %33, i64 44
  store i32 %.1, ptr %45, align 4
  %46 = getelementptr inbounds nuw i8, ptr %33, i64 16
  store i8 1, ptr %46, align 8
  %47 = getelementptr inbounds nuw i8, ptr %0, i64 32
  %48 = load ptr, ptr %47, align 8
  %.not.i = icmp eq ptr %48, null
  br i1 %.not.i, label %tvb_new_with_subset.exit, label %49

49:                                               ; preds = %31
  %50 = zext i32 %.pre to i64
  %51 = getelementptr i8, ptr %48, i64 %50
  %52 = getelementptr inbounds nuw i8, ptr %33, i64 32
  store ptr %51, ptr %52, align 8
  br label %tvb_new_with_subset.exit

tvb_new_with_subset.exit:                         ; preds = %31, %49
  %53 = getelementptr inbounds nuw i8, ptr %0, i64 24
  %54 = load ptr, ptr %53, align 8
  %55 = getelementptr inbounds nuw i8, ptr %33, i64 24
  store ptr %54, ptr %55, align 8
  call void @tvb_add_to_chain(ptr noundef nonnull %0, ptr noundef %33)
  call void @llvm.lifetime.end.p0(i64 4, ptr nonnull %5) #5
  call void @llvm.lifetime.end.p0(i64 4, ptr nonnull %4) #5
  ret ptr %33
}